target datalayout = "e-m:e-p270:32:32-p271:32:32-p272:64:64-i64:64-i128:128-f80:128-n8:16:32:64-S128"
target triple = "x86_64-pc-linux-gnu"

%"struct.faiss::IndexFlatCodes" = type { %"struct.faiss::Index.base", i64, %"class.std::vector" }
%"struct.faiss::Index.base" = type <{ ptr, i32, [4 x i8], i64, i8, i8, [2 x i8], i32, float }>
%"class.std::vector" = type { %"struct.std::_Vector_base" }
%"struct.std::_Vector_base" = type { %"struct.std::_Vector_base<unsigned char, std::allocator<unsigned char>>::_Vector_impl" }
%"struct.std::_Vector_base<unsigned char, std::allocator<unsigned char>>::_Vector_impl" = type { %"struct.std::_Vector_base<unsigned char, std::allocator<unsigned char>>::_Vector_impl_data" }
%"struct.std::_Vector_base<unsigned char, std::allocator<unsigned char>>::_Vector_impl_data" = type { ptr, ptr, ptr }
%"class.std::__cxx11::basic_string" = type { %"struct.std::__cxx11::basic_string<char>::_Alloc_hider", i64, %union.anon }
%"struct.std::__cxx11::basic_string<char>::_Alloc_hider" = type { ptr }
%union.anon = type { i64, [8 x i8] }
%"struct.faiss::Index" = type <{ ptr, i32, [4 x i8], i64, i8, i8, [2 x i8], i32, float, [4 x i8] }>

@.str = private unnamed_addr constant [19 x i8] c"Error: '%s' failed\00", align 1
@.str.1 = private unnamed_addr constant [11 x i8] c"is_trained\00", align 1
@__PRETTY_FUNCTION__._ZN5faiss14IndexFlatCodes3addElPKf = private unnamed_addr constant [62 x i8] c"virtual void faiss::IndexFlatCodes::add(idx_t, const float *)\00", align 1
@.str.2 = private unnamed_addr constant [114 x i8] c"generated/home/dtcxzyw/WorkSpace/Projects/compilers/llvm-opt-benchmark/bench/faiss/faiss/faiss/IndexFlatCodes.cpp\00", align 1
@_ZTIN5faiss14FaissExceptionE = external constant ptr

; Function Attrs: mustprogress nounwind uwtable
define linkonce_odr noundef ptr @_ZNKSt6vectorIhSaIhEE11_M_data_ptrIhEEPT_S4_(ptr noundef nonnull align 8 dereferenceable(24) %0, ptr noundef %1) #0 comdat align 2 {
  %3 = alloca ptr, align 8
  %4 = alloca ptr, align 8
  store ptr %0, ptr %3, align 8
  store ptr %1, ptr %4, align 8
  %5 = load ptr, ptr %4, align 8
  ret ptr %5
}

; Function Attrs: mustprogress nounwind uwtable
define linkonce_odr noundef ptr @_ZNSt6vectorIhSaIhEE4dataEv(ptr noundef nonnull align 8 dereferenceable(24) %0) #0 comdat align 2 {
  %2 = alloca ptr, align 8
  store ptr %0, ptr %2, align 8
  %3 = load ptr, ptr %2, align 8
  %4 = getelementptr inbounds %"struct.std::_Vector_base", ptr %3, i32 0, i32 0
  %5 = getelementptr inbounds %"struct.std::_Vector_base<unsigned char, std::allocator<unsigned char>>::_Vector_impl_data", ptr %4, i32 0, i32 0
  %6 = load ptr, ptr %5, align 8
  %7 = call noundef ptr @_ZNKSt6vectorIhSaIhEE11_M_data_ptrIhEEPT_S4_(ptr noundef nonnull align 8 dereferenceable(24) %3, ptr noundef %6) #12
  ret ptr %7
}

; Function Attrs: mustprogress uwtable
define void @_ZN5faiss14IndexFlatCodes3addElPKf(ptr noundef nonnull align 8 dereferenceable(72) %0, i64 noundef %1, ptr noundef %2) unnamed_addr #2 align 2 personality ptr @__gxx_personality_v0 {
  %4 = alloca ptr, align 8
  %5 = alloca i64, align 8
  %6 = alloca ptr, align 8
  %7 = alloca %"class.std::__cxx11::basic_string", align 8
  %8 = alloca i32, align 4
  %9 = alloca ptr, align 8
  %10 = alloca i32, align 4
  store ptr %0, ptr %4, align 8
  store i64 %1, ptr %5, align 8
  store ptr %2, ptr %6, align 8
  %11 = load ptr, ptr %4, align 8
  br label %12

12:                                               ; preds = %3
  %13 = getelementptr inbounds %"struct.faiss::Index", ptr %11, i32 0, i32 5
  %14 = load i8, ptr %13, align 1
  %15 = trunc i8 %14 to i1
  br i1 %15, label %39, label %16

16:                                               ; preds = %12
  br label %17

17:                                               ; preds = %16
  call void @_ZNSt7__cxx1112basic_stringIcSt11char_traitsIcESaIcEEC1Ev(ptr noundef nonnull align 8 dereferenceable(32) %7) #12
  %18 = call i32 (ptr, i64, ptr, ...) @snprintf(ptr noundef null, i64 noundef 0, ptr noundef @.str, ptr noundef @.str.1) #12
  store i32 %18, ptr %8, align 4
  %19 = load i32, ptr %8, align 4
  %20 = add nsw i32 %19, 1
  %21 = sext i32 %20 to i64
  invoke void @_ZNSt7__cxx1112basic_stringIcSt11char_traitsIcESaIcEE6resizeEm(ptr noundef nonnull align 8 dereferenceable(32) %7, i64 noundef %21)
          to label %22 unwind label %29

22:                                               ; preds = %17
  %23 = invoke noundef nonnull align 1 dereferenceable(1) ptr @_ZNSt7__cxx1112basic_stringIcSt11char_traitsIcESaIcEEixEm(ptr noundef nonnull align 8 dereferenceable(32) %7, i64 noundef 0)
          to label %24 unwind label %29

24:                                               ; preds = %22
  %25 = call noundef i64 @_ZNKSt7__cxx1112basic_stringIcSt11char_traitsIcESaIcEE4sizeEv(ptr noundef nonnull align 8 dereferenceable(32) %7) #12
  %26 = call i32 (ptr, i64, ptr, ...) @snprintf(ptr noundef %23, i64 noundef %25, ptr noundef @.str, ptr noundef @.str.1) #12
  %27 = call ptr @__cxa_allocate_exception(i64 40) #12
  invoke void @_ZN5faiss14FaissExceptionC1ERKNSt7__cxx1112basic_stringIcSt11char_traitsIcESaIcEEEPKcSA_i(ptr noundef nonnull align 8 dereferenceable(40) %27, ptr noundef nonnull align 8 dereferenceable(32) %7, ptr noundef @__PRETTY_FUNCTION__._ZN5faiss14IndexFlatCodes3addElPKf, ptr noundef @.str.2, i32 noundef 24)
          to label %28 unwind label %33

28:                                               ; preds = %24
  invoke void @__cxa_throw(ptr %27, ptr @_ZTIN5faiss14FaissExceptionE, ptr @_ZN5faiss14FaissExceptionD2Ev) #14
          to label %76 unwind label %29

29:                                               ; preds = %28, %22, %17
  %30 = landingpad { ptr, i32 }
          cleanup
  %31 = extractvalue { ptr, i32 } %30, 0
  store ptr %31, ptr %9, align 8
  %32 = extractvalue { ptr, i32 } %30, 1
  store i32 %32, ptr %10, align 4
  br label %37

33:                                               ; preds = %24
  %34 = landingpad { ptr, i32 }
          cleanup
  %35 = extractvalue { ptr, i32 } %34, 0
  store ptr %35, ptr %9, align 8
  %36 = extractvalue { ptr, i32 } %34, 1
  store i32 %36, ptr %10, align 4
  call void @__cxa_free_exception(ptr %27) #12
  br label %37

37:                                               ; preds = %33, %29
  call void @_ZNSt7__cxx1112basic_stringIcSt11char_traitsIcESaIcEED1Ev(ptr noundef nonnull align 8 dereferenceable(32) %7) #12
  br label %71

38:                                               ; No predecessors!
  br label %39

39:                                               ; preds = %38, %12
  br label %40

40:                                               ; preds = %39
  %41 = load i64, ptr %5, align 8
  %42 = icmp eq i64 %41, 0
  br i1 %42, label %43, label %44

43:                                               ; preds = %40
  br label %70

44:                                               ; preds = %40
  %45 = getelementptr inbounds %"struct.faiss::IndexFlatCodes", ptr %11, i32 0, i32 2
  %46 = getelementptr inbounds %"struct.faiss::Index", ptr %11, i32 0, i32 3
  %47 = load i64, ptr %46, align 8
  %48 = load i64, ptr %5, align 8
  %49 = add nsw i64 %47, %48
  %50 = getelementptr inbounds %"struct.faiss::IndexFlatCodes", ptr %11, i32 0, i32 1
  %51 = load i64, ptr %50, align 8
  %52 = mul i64 %49, %51
  call void @_ZNSt6vectorIhSaIhEE6resizeEm(ptr noundef nonnull align 8 dereferenceable(24) %45, i64 noundef %52)
  %53 = load i64, ptr %5, align 8
  %54 = load ptr, ptr %6, align 8
  %55 = getelementptr inbounds %"struct.faiss::IndexFlatCodes", ptr %11, i32 0, i32 2
  %56 = call noundef ptr @_ZNSt6vectorIhSaIhEE4dataEv(ptr noundef nonnull align 8 dereferenceable(24) %55) #12
  %57 = getelementptr inbounds %"struct.faiss::Index", ptr %11, i32 0, i32 3
  %58 = load i64, ptr %57, align 8
  %59 = getelementptr inbounds %"struct.faiss::IndexFlatCodes", ptr %11, i32 0, i32 1
  %60 = load i64, ptr %59, align 8
  %61 = mul i64 %58, %60
  %62 = getelementptr inbounds i8, ptr %56, i64 %61
  %63 = load ptr, ptr %11, align 8
  %64 = getelementptr inbounds ptr, ptr %63, i64 18
  %65 = load ptr, ptr %64, align 8
  call void %65(ptr noundef nonnull align 8 dereferenceable(36) %11, i64 noundef %53, ptr noundef %54, ptr noundef %62)
  %66 = load i64, ptr %5, align 8
  %67 = getelementptr inbounds %"struct.faiss::Index", ptr %11, i32 0, i32 3
  %68 = load i64, ptr %67, align 8
  %69 = add nsw i64 %68, %66
  store i64 %69, ptr %67, align 8
  br label %70

70:                                               ; preds = %44, %43
  ret void

71:                                               ; preds = %37
  %72 = load ptr, ptr %9, align 8
  %73 = load i32, ptr %10, align 4
  %74 = insertvalue { ptr, i32 } poison, ptr %72, 0
  %75 = insertvalue { ptr, i32 } %74, i32 %73, 1
  resume { ptr, i32 } %75

76:                                               ; preds = %28
  unreachable
}