; Function Attrs: mustprogress uwtable
define void @_ZN5faiss14IndexFlatCodes3addElPKf(ptr noundef nonnull align 8 dereferenceable(72) %0, i64 noundef %1, ptr noundef %2) unnamed_addr #2 align 2 personality ptr @__gxx_personality_v0 {
  %4 = alloca %"class.std::__cxx11::basic_string", align 8
  %5 = getelementptr inbounds i8, ptr %0, i64 25
  %6 = load i8, ptr %5, align 1
  %7 = and i8 %6, 1
  %.not = icmp eq i8 %7, 0
  br i1 %.not, label %8, label %24

8:                                                ; preds = %3
  call void @_ZNSt7__cxx1112basic_stringIcSt11char_traitsIcESaIcEEC1Ev(ptr noundef nonnull align 8 dereferenceable(32) %4) #21
  %9 = call i32 (ptr, i64, ptr, ...) @snprintf(ptr noundef null, i64 noundef 0, ptr noundef nonnull @.str, ptr noundef nonnull @.str.1) #21
  %10 = add nsw i32 %9, 1
  %11 = sext i32 %10 to i64
  invoke void @_ZNSt7__cxx1112basic_stringIcSt11char_traitsIcESaIcEE6resizeEm(ptr noundef nonnull align 8 dereferenceable(32) %4, i64 noundef %11)
          to label %12 unwind label %19

12:                                               ; preds = %8
  %13 = invoke noundef nonnull align 1 dereferenceable(1) ptr @_ZNSt7__cxx1112basic_stringIcSt11char_traitsIcESaIcEEixEm(ptr noundef nonnull align 8 dereferenceable(32) %4, i64 noundef 0)
          to label %14 unwind label %19

14:                                               ; preds = %12
  %15 = call noundef i64 @_ZNKSt7__cxx1112basic_stringIcSt11char_traitsIcESaIcEE4sizeEv(ptr noundef nonnull align 8 dereferenceable(32) %4) #21
  %16 = call i32 (ptr, i64, ptr, ...) @snprintf(ptr noundef nonnull %13, i64 noundef %15, ptr noundef nonnull @.str, ptr noundef nonnull @.str.1) #21
  %17 = call ptr @__cxa_allocate_exception(i64 40) #21
  invoke void @_ZN5faiss14FaissExceptionC1ERKNSt7__cxx1112basic_stringIcSt11char_traitsIcESaIcEEEPKcSA_i(ptr noundef nonnull align 8 dereferenceable(40) %17, ptr noundef nonnull align 8 dereferenceable(32) %4, ptr noundef nonnull @__PRETTY_FUNCTION__._ZN5faiss14IndexFlatCodes3addElPKf, ptr noundef nonnull @.str.2, i32 noundef 24)
          to label %18 unwind label %21

18:                                               ; preds = %14
  invoke void @__cxa_throw(ptr nonnull %17, ptr nonnull @_ZTIN5faiss14FaissExceptionE, ptr nonnull @_ZN5faiss14FaissExceptionD2Ev) #23
          to label %45 unwind label %19

19:                                               ; preds = %18, %12, %8
  %20 = landingpad { ptr, i32 }
          cleanup
  br label %23

21:                                               ; preds = %14
  %22 = landingpad { ptr, i32 }
          cleanup
  call void @__cxa_free_exception(ptr %17) #21
  br label %23

23:                                               ; preds = %21, %19
  %.pn = phi { ptr, i32 } [ %20, %19 ], [ %22, %21 ]
  call void @_ZNSt7__cxx1112basic_stringIcSt11char_traitsIcESaIcEED1Ev(ptr noundef nonnull align 8 dereferenceable(32) %4) #21
  resume { ptr, i32 } %.pn

24:                                               ; preds = %3
  %25 = icmp eq i64 %1, 0
  br i1 %25, label %44, label %26

26:                                               ; preds = %24
  %27 = getelementptr inbounds i8, ptr %0, i64 48
  %28 = getelementptr inbounds i8, ptr %0, i64 16
  %29 = load i64, ptr %28, align 8
  %30 = add nsw i64 %29, %1
  %31 = getelementptr inbounds i8, ptr %0, i64 40
  %32 = load i64, ptr %31, align 8
  %33 = mul i64 %30, %32
  tail call void @_ZNSt6vectorIhSaIhEE6resizeEm(ptr noundef nonnull align 8 dereferenceable(24) %27, i64 noundef %33)
  %34 = load ptr, ptr %27, align 8
  %35 = load i64, ptr %28, align 8
  %36 = load i64, ptr %31, align 8
  %37 = mul i64 %36, %35
  %38 = getelementptr inbounds i8, ptr %34, i64 %37
  %39 = load ptr, ptr %0, align 8
  %40 = getelementptr inbounds i8, ptr %39, i64 144
  %41 = load ptr, ptr %40, align 8
  tail call void %41(ptr noundef nonnull align 8 dereferenceable(36) %0, i64 noundef %1, ptr noundef %2, ptr noundef %38)
  %42 = load i64, ptr %28, align 8
  %43 = add nsw i64 %42, %1
  store i64 %43, ptr %28, align 8
  br label %44

44:                                               ; preds = %24, %26
  ret void

45:                                               ; preds = %18
  unreachable
}